; Function Attrs: nounwind uwtable
define dso_local void @io_close_task_fds(ptr noundef readonly captures(none) %0) local_unnamed_addr #0 {
  %2 = getelementptr inbounds nuw i8, ptr %0, i64 156
  %3 = load i32, ptr %2, align 4
  %.not = icmp eq i32 %3, 0
  br i1 %.not, label %._crit_edge, label %.lr.ph

.lr.ph:                                           ; preds = %1
  %4 = getelementptr inbounds nuw i8, ptr %0, i64 480
  br label %5

5:                                                ; preds = %.lr.ph, %5
  %indvars.iv = phi i64 [ 0, %.lr.ph ], [ %indvars.iv.next, %5 ]
  %6 = load ptr, ptr %4, align 8
  %7 = getelementptr inbounds nuw ptr, ptr %6, i64 %indvars.iv
  %8 = load ptr, ptr %7, align 8
  %9 = getelementptr inbounds nuw i8, ptr %8, i64 96
  %10 = load i32, ptr %9, align 8
  %11 = tail call i32 @close(i32 noundef %10) #11
  %12 = load ptr, ptr %4, align 8
  %13 = getelementptr inbounds nuw ptr, ptr %12, i64 %indvars.iv
  %14 = load ptr, ptr %13, align 8
  %15 = getelementptr inbounds nuw i8, ptr %14, i64 100
  %16 = load i32, ptr %15, align 4
  %17 = tail call i32 @close(i32 noundef %16) #11
  %18 = load ptr, ptr %4, align 8
  %19 = getelementptr inbounds nuw ptr, ptr %18, i64 %indvars.iv
  %20 = load ptr, ptr %19, align 8
  %21 = getelementptr inbounds nuw i8, ptr %20, i64 104
  %22 = load i32, ptr %21, align 8
  %23 = tail call i32 @close(i32 noundef %22) #11
  %indvars.iv.next = add nuw nsw i64 %indvars.iv, 1
  %24 = load i32, ptr %2, align 4
  %25 = zext i32 %24 to i64
  %26 = icmp samesign ult i64 %indvars.iv.next, %25
  br i1 %26, label %5, label %._crit_edge, !llvm.loop !22

._crit_edge:                                      ; preds = %5, %1
  ret void
}